target datalayout = "e-m:e-p270:32:32-p271:32:32-p272:64:64-i64:64-i128:128-f80:128-n8:16:32:64-S128"
target triple = "x86_64-pc-linux-gnu"

%struct.CreatePLangStmt = type { i32, i8, ptr, ptr, ptr, ptr, i8 }

; Function Attrs: nounwind uwtable
define internal zeroext i1 @_equalCreatePLangStmt(ptr noundef %0, ptr noundef %1) #0 {
  %3 = alloca i1, align 1
  %4 = alloca ptr, align 8
  %5 = alloca ptr, align 8
  store ptr %0, ptr %4, align 8
  store ptr %1, ptr %5, align 8
  br label %6

6:                                                ; preds = %2
  %7 = load ptr, ptr %4, align 8
  %8 = getelementptr inbounds nuw %struct.CreatePLangStmt, ptr %7, i32 0, i32 1
  %9 = load i8, ptr %8, align 4, !range !4, !noundef !5
  %10 = trunc i8 %9 to i1
  %11 = zext i1 %10 to i32
  %12 = load ptr, ptr %5, align 8
  %13 = getelementptr inbounds nuw %struct.CreatePLangStmt, ptr %12, i32 0, i32 1
  %14 = load i8, ptr %13, align 4, !range !4, !noundef !5
  %15 = trunc i8 %14 to i1
  %16 = zext i1 %15 to i32
  %17 = icmp ne i32 %11, %16
  br i1 %17, label %18, label %19

18:                                               ; preds = %6
  store i1 false, ptr %3, align 1
  br label %99

19:                                               ; preds = %6
  br label %20

20:                                               ; preds = %19
  br label %21

21:                                               ; preds = %20
  %22 = load ptr, ptr %4, align 8
  %23 = getelementptr inbounds nuw %struct.CreatePLangStmt, ptr %22, i32 0, i32 2
  %24 = load ptr, ptr %23, align 8
  %25 = icmp ne ptr %24, null
  br i1 %25, label %26, label %40

26:                                               ; preds = %21
  %27 = load ptr, ptr %5, align 8
  %28 = getelementptr inbounds nuw %struct.CreatePLangStmt, ptr %27, i32 0, i32 2
  %29 = load ptr, ptr %28, align 8
  %30 = icmp ne ptr %29, null
  br i1 %30, label %31, label %40

31:                                               ; preds = %26
  %32 = load ptr, ptr %4, align 8
  %33 = getelementptr inbounds nuw %struct.CreatePLangStmt, ptr %32, i32 0, i32 2
  %34 = load ptr, ptr %33, align 8
  %35 = load ptr, ptr %5, align 8
  %36 = getelementptr inbounds nuw %struct.CreatePLangStmt, ptr %35, i32 0, i32 2
  %37 = load ptr, ptr %36, align 8
  %38 = call i32 @strcmp(ptr noundef %34, ptr noundef %37) #8
  %39 = icmp eq i32 %38, 0
  br i1 %39, label %49, label %48

40:                                               ; preds = %26, %21
  %41 = load ptr, ptr %4, align 8
  %42 = getelementptr inbounds nuw %struct.CreatePLangStmt, ptr %41, i32 0, i32 2
  %43 = load ptr, ptr %42, align 8
  %44 = load ptr, ptr %5, align 8
  %45 = getelementptr inbounds nuw %struct.CreatePLangStmt, ptr %44, i32 0, i32 2
  %46 = load ptr, ptr %45, align 8
  %47 = icmp eq ptr %43, %46
  br i1 %47, label %49, label %48

48:                                               ; preds = %40, %31
  store i1 false, ptr %3, align 1
  br label %99

49:                                               ; preds = %40, %31
  br label %50

50:                                               ; preds = %49
  br label %51

51:                                               ; preds = %50
  %52 = load ptr, ptr %4, align 8
  %53 = getelementptr inbounds nuw %struct.CreatePLangStmt, ptr %52, i32 0, i32 3
  %54 = load ptr, ptr %53, align 8
  %55 = load ptr, ptr %5, align 8
  %56 = getelementptr inbounds nuw %struct.CreatePLangStmt, ptr %55, i32 0, i32 3
  %57 = load ptr, ptr %56, align 8
  %58 = call zeroext i1 @equal(ptr noundef %54, ptr noundef %57)
  br i1 %58, label %60, label %59

59:                                               ; preds = %51
  store i1 false, ptr %3, align 1
  br label %99

60:                                               ; preds = %51
  br label %61

61:                                               ; preds = %60
  br label %62

62:                                               ; preds = %61
  %63 = load ptr, ptr %4, align 8
  %64 = getelementptr inbounds nuw %struct.CreatePLangStmt, ptr %63, i32 0, i32 4
  %65 = load ptr, ptr %64, align 8
  %66 = load ptr, ptr %5, align 8
  %67 = getelementptr inbounds nuw %struct.CreatePLangStmt, ptr %66, i32 0, i32 4
  %68 = load ptr, ptr %67, align 8
  %69 = call zeroext i1 @equal(ptr noundef %65, ptr noundef %68)
  br i1 %69, label %71, label %70

70:                                               ; preds = %62
  store i1 false, ptr %3, align 1
  br label %99

71:                                               ; preds = %62
  br label %72

72:                                               ; preds = %71
  br label %73

73:                                               ; preds = %72
  %74 = load ptr, ptr %4, align 8
  %75 = getelementptr inbounds nuw %struct.CreatePLangStmt, ptr %74, i32 0, i32 5
  %76 = load ptr, ptr %75, align 8
  %77 = load ptr, ptr %5, align 8
  %78 = getelementptr inbounds nuw %struct.CreatePLangStmt, ptr %77, i32 0, i32 5
  %79 = load ptr, ptr %78, align 8
  %80 = call zeroext i1 @equal(ptr noundef %76, ptr noundef %79)
  br i1 %80, label %82, label %81

81:                                               ; preds = %73
  store i1 false, ptr %3, align 1
  br label %99

82:                                               ; preds = %73
  br label %83

83:                                               ; preds = %82
  br label %84

84:                                               ; preds = %83
  %85 = load ptr, ptr %4, align 8
  %86 = getelementptr inbounds nuw %struct.CreatePLangStmt, ptr %85, i32 0, i32 6
  %87 = load i8, ptr %86, align 8, !range !4, !noundef !5
  %88 = trunc i8 %87 to i1
  %89 = zext i1 %88 to i32
  %90 = load ptr, ptr %5, align 8
  %91 = getelementptr inbounds nuw %struct.CreatePLangStmt, ptr %90, i32 0, i32 6
  %92 = load i8, ptr %91, align 8, !range !4, !noundef !5
  %93 = trunc i8 %92 to i1
  %94 = zext i1 %93 to i32
  %95 = icmp ne i32 %89, %94
  br i1 %95, label %96, label %97

96:                                               ; preds = %84
  store i1 false, ptr %3, align 1
  br label %99

97:                                               ; preds = %84
  br label %98

98:                                               ; preds = %97
  store i1 true, ptr %3, align 1
  br label %99

99:                                               ; preds = %98, %96, %81, %70, %59, %48, %18
  %100 = load i1, ptr %3, align 1
  ret i1 %100
}