; Function Attrs: nounwind uwtable
define internal fastcc noundef zeroext i1 @_equalCreatePLangStmt(ptr noundef nonnull readonly captures(none) %0, ptr noundef nonnull readonly captures(none) %1) unnamed_addr #0 {
  %3 = getelementptr inbounds nuw i8, ptr %0, i64 4
  %4 = load i8, ptr %3, align 4, !range !4, !noundef !5
  %5 = getelementptr inbounds nuw i8, ptr %1, i64 4
  %6 = load i8, ptr %5, align 4, !range !4, !noundef !5
  %.not = icmp eq i8 %4, %6
  br i1 %.not, label %7, label %.thread

7:                                                ; preds = %2
  %8 = getelementptr inbounds nuw i8, ptr %0, i64 8
  %9 = load ptr, ptr %8, align 8
  %.not19 = icmp eq ptr %9, null
  %.phi.trans.insert = getelementptr inbounds nuw i8, ptr %1, i64 8
  %.pre = load ptr, ptr %.phi.trans.insert, align 8
  br i1 %.not19, label %14, label %10

10:                                               ; preds = %7
  %.not20 = icmp eq ptr %.pre, null
  br i1 %.not20, label %.thread, label %11

11:                                               ; preds = %10
  %12 = tail call i32 @strcmp(ptr noundef nonnull dereferenceable(1) %9, ptr noundef nonnull dereferenceable(1) %.pre) #11
  %13 = icmp eq i32 %12, 0
  br i1 %13, label %16, label %.thread

14:                                               ; preds = %7
  %15 = icmp eq ptr %9, %.pre
  br i1 %15, label %16, label %.thread

16:                                               ; preds = %14, %11
  %17 = getelementptr inbounds nuw i8, ptr %0, i64 16
  %18 = load ptr, ptr %17, align 8
  %19 = getelementptr inbounds nuw i8, ptr %1, i64 16
  %20 = load ptr, ptr %19, align 8
  %21 = tail call zeroext i1 @equal(ptr noundef %18, ptr noundef %20)
  br i1 %21, label %22, label %.thread

22:                                               ; preds = %16
  %23 = getelementptr inbounds nuw i8, ptr %0, i64 24
  %24 = load ptr, ptr %23, align 8
  %25 = getelementptr inbounds nuw i8, ptr %1, i64 24
  %26 = load ptr, ptr %25, align 8
  %27 = tail call zeroext i1 @equal(ptr noundef %24, ptr noundef %26)
  br i1 %27, label %28, label %.thread

28:                                               ; preds = %22
  %29 = getelementptr inbounds nuw i8, ptr %0, i64 32
  %30 = load ptr, ptr %29, align 8
  %31 = getelementptr inbounds nuw i8, ptr %1, i64 32
  %32 = load ptr, ptr %31, align 8
  %33 = tail call zeroext i1 @equal(ptr noundef %30, ptr noundef %32)
  br i1 %33, label %34, label %.thread

34:                                               ; preds = %28
  %35 = getelementptr inbounds nuw i8, ptr %0, i64 40
  %36 = load i8, ptr %35, align 8, !range !4, !noundef !5
  %37 = getelementptr inbounds nuw i8, ptr %1, i64 40
  %38 = load i8, ptr %37, align 8, !range !4, !noundef !5
  %.not21 = icmp eq i8 %36, %38
  br label %.thread

.thread:                                          ; preds = %10, %34, %28, %22, %16, %11, %14, %2
  %.0 = phi i1 [ false, %2 ], [ false, %14 ], [ false, %11 ], [ false, %16 ], [ false, %22 ], [ false, %28 ], [ %.not21, %34 ], [ false, %10 ]
  ret i1 %.0
}